; ModuleID = 'bench/osqp/original/algebra_libs.c.ll'
source_filename = "bench/osqp/original/algebra_libs.c.ll"
target datalayout = "e-m:e-p270:32:32-p271:32:32-p272:64:64-i64:64-i128:128-f80:128-n8:16:32:64-S128"
target triple = "x86_64-pc-linux-gnu"

; Function Attrs: mustprogress nofree norecurse nosync nounwind willreturn memory(none) uwtable
define noundef i64 @osqp_algebra_linsys_supported() local_unnamed_addr #0 {
  ret i64 1
}

; Function Attrs: mustprogress nofree norecurse nosync nounwind willreturn memory(none) uwtable
define noundef i32 @osqp_algebra_default_linsys() local_unnamed_addr #0 {
  ret i32 1
}

; Function Attrs: mustprogress nofree norecurse nosync nounwind willreturn memory(none) uwtable
define noundef i64 @osqp_algebra_init_libs(i64 noundef %0) local_unnamed_addr #0 {
  ret i64 0
}

; Function Attrs: mustprogress nofree norecurse nosync nounwind willreturn memory(none) uwtable
define void @osqp_algebra_free_libs() local_unnamed_addr #0 {
  ret void
}

; Function Attrs: mustprogress nofree norecurse nosync nounwind willreturn memory(argmem: write) uwtable
define noundef i64 @osqp_algebra_name(ptr nocapture noundef writeonly %0, i64 noundef %1) local_unnamed_addr #1 {
  store <8 x i8> <i8 66, i8 117, i8 105, i8 108, i8 116, i8 45, i8 105, i8 110>, ptr %0, align 1
  %3 = getelementptr inbounds i8, ptr %0, i64 8
  store i8 0, ptr %3, align 1
  ret i64 9
}

; Function Attrs: mustprogress nofree norecurse nosync nounwind willreturn memory(argmem: write) uwtable
define noundef i64 @osqp_algebra_device_name(ptr nocapture noundef writeonly %0, i64 noundef %1) local_unnamed_addr #1 {
  store i8 0, ptr %0, align 1
  ret i64 0
}

; Function Attrs: nounwind uwtable
define i64 @osqp_algebra_init_linsys_solver(ptr noundef %0, ptr noundef %1, ptr noundef %2, ptr noundef %3, ptr noundef %4, ptr nocapture noundef readnone %5, ptr nocapture noundef readnone %6, i64 noundef %7) local_unnamed_addr #2 {
  %9 = tail call i64 @init_linsys_solver_qdldl(ptr noundef %0, ptr noundef %1, ptr noundef %2, ptr noundef %3, ptr noundef %4, i64 noundef %7) #4
  ret i64 %9
}

declare i64 @init_linsys_solver_qdldl(ptr noundef, ptr noundef, ptr noundef, ptr noundef, ptr noundef, i64 noundef) local_unnamed_addr #3

; Function Attrs: nounwind uwtable
define i64 @adjoint_derivative_linsys_solver(ptr noundef %0, ptr nocapture noundef readnone %1, ptr noundef %2, ptr noundef %3, ptr noundef %4, ptr noundef %5, ptr noundef %6, ptr noundef %7) local_unnamed_addr #2 {
  %9 = tail call i64 @adjoint_derivative_qdldl(ptr noundef %0, ptr noundef %2, ptr noundef %3, ptr noundef %4, ptr noundef %5, ptr noundef %6, ptr noundef %7) #4
  ret i64 %9
}

declare i64 @adjoint_derivative_qdldl(ptr noundef, ptr noundef, ptr noundef, ptr noundef, ptr noundef, ptr noundef, ptr noundef) local_unnamed_addr #3


!llvm.module.flags = !{!0, !1, !2, !3}

!0 = !{i32 1, !"wchar_size", i32 4}
!1 = !{i32 8, !"PIC Level", i32 2}
!2 = !{i32 7, !"uwtable", i32 2}
!3 = !{i32 7, !"frame-pointer", i32 2}
